; Function Attrs: mustprogress nounwind uwtable
define hidden void @_ZNK15MetaspaceTracer35report_metaspace_allocation_failureEP15ClassLoaderDatamN12MetaspaceObj4TypeEN9Metaspace12MetadataTypeE(ptr nocapture noundef nonnull readnone align 1 dereferenceable(1) %0, ptr noundef %1, i64 noundef %2, i32 noundef %3, i32 noundef %4) local_unnamed_addr #0 align 2 {
  %6 = alloca %class.EventMetaspaceAllocationFailure, align 8
  call void @llvm.lifetime.start.p0(i64 64, ptr nonnull %6)
  %7 = getelementptr inbounds i8, ptr %6, i64 8
  call void @llvm.memset.p0.i64(ptr noundef nonnull align 8 dereferenceable(11) %7, i8 0, i64 11, i1 false)
  %8 = load i8, ptr getelementptr inbounds (i8, ptr @_ZN15JfrEventSetting19_jvm_event_settingsE, i64 977), align 1
  %.not.i.not.i = icmp eq i8 %8, 0
  br i1 %.not.i.not.i, label %_ZNK15MetaspaceTracer29send_allocation_failure_eventI31EventMetaspaceAllocationFailureEEvP15ClassLoaderDatamN12MetaspaceObj4TypeEN9Metaspace12MetadataTypeE.exit, label %9

9:                                                ; preds = %5
  %10 = getelementptr inbounds i8, ptr %6, i64 18
  %11 = getelementptr inbounds i8, ptr %6, i64 17
  %12 = tail call noundef i64 @_ZN33FastUnorderedElapsedCounterSource3nowEv() #7
  store i64 %12, ptr %6, align 8
  store i8 1, ptr %11, align 1
  store i8 1, ptr %10, align 2
  %13 = getelementptr inbounds i8, ptr %6, i64 24
  store ptr %1, ptr %13, align 8
  %14 = getelementptr inbounds i8, ptr %1, i64 33
  %15 = load i8, ptr %14, align 1
  %16 = and i8 %15, 1
  %17 = getelementptr inbounds i8, ptr %6, i64 32
  store i8 %16, ptr %17, align 8
  %18 = shl i64 %2, 3
  %19 = getelementptr inbounds i8, ptr %6, i64 40
  store i64 %18, ptr %19, align 8
  %20 = and i32 %4, 255
  %21 = zext nneg i32 %20 to i64
  %22 = getelementptr inbounds i8, ptr %6, i64 48
  store i64 %21, ptr %22, align 8
  %23 = and i32 %3, 255
  %24 = zext nneg i32 %23 to i64
  %25 = getelementptr inbounds i8, ptr %6, i64 56
  store i64 %24, ptr %25, align 8
  call void @_ZN8JfrEventI31EventMetaspaceAllocationFailureE11write_eventEv(ptr noundef nonnull align 8 dereferenceable(19) %6)
  br label %_ZNK15MetaspaceTracer29send_allocation_failure_eventI31EventMetaspaceAllocationFailureEEvP15ClassLoaderDatamN12MetaspaceObj4TypeEN9Metaspace12MetadataTypeE.exit

_ZNK15MetaspaceTracer29send_allocation_failure_eventI31EventMetaspaceAllocationFailureEEvP15ClassLoaderDatamN12MetaspaceObj4TypeEN9Metaspace12MetadataTypeE.exit: ; preds = %5, %9
  call void @llvm.lifetime.end.p0(i64 64, ptr nonnull %6)
  ret void
}